target datalayout = "e-m:e-p270:32:32-p271:32:32-p272:64:64-i64:64-i128:128-f80:128-n8:16:32:64-S128"
target triple = "x86_64-pc-linux-gnu"

%struct.z_stream_s = type { ptr, i32, i64, ptr, i32, i64, ptr, ptr, ptr, ptr, ptr, i32, i64, i64 }

@.str = private unnamed_addr constant [7 x i8] c"1.2.11\00", align 1

; Function Attrs: nounwind uwtable
define i32 @FT_Gzip_Uncompress(ptr noundef %0, ptr noundef %1, ptr noundef %2, ptr noundef %3, i64 noundef %4) #0 {
  %6 = alloca i32, align 4
  %7 = alloca ptr, align 8
  %8 = alloca ptr, align 8
  %9 = alloca ptr, align 8
  %10 = alloca ptr, align 8
  %11 = alloca i64, align 8
  %12 = alloca %struct.z_stream_s, align 8
  %13 = alloca i32, align 4
  store ptr %0, ptr %7, align 8
  store ptr %1, ptr %8, align 8
  store ptr %2, ptr %9, align 8
  store ptr %3, ptr %10, align 8
  store i64 %4, ptr %11, align 8
  %14 = load ptr, ptr %7, align 8
  %15 = icmp ne ptr %14, null
  br i1 %15, label %16, label %22

16:                                               ; preds = %5
  %17 = load ptr, ptr %9, align 8
  %18 = icmp ne ptr %17, null
  br i1 %18, label %19, label %22

19:                                               ; preds = %16
  %20 = load ptr, ptr %8, align 8
  %21 = icmp ne ptr %20, null
  br i1 %21, label %23, label %22

22:                                               ; preds = %19, %16, %5
  store i32 6, ptr %6, align 4
  br label %75

23:                                               ; preds = %19
  %24 = load ptr, ptr %10, align 8
  %25 = getelementptr inbounds %struct.z_stream_s, ptr %12, i32 0, i32 0
  store ptr %24, ptr %25, align 8
  %26 = load i64, ptr %11, align 8
  %27 = trunc i64 %26 to i32
  %28 = getelementptr inbounds %struct.z_stream_s, ptr %12, i32 0, i32 1
  store i32 %27, ptr %28, align 8
  %29 = load ptr, ptr %8, align 8
  %30 = getelementptr inbounds %struct.z_stream_s, ptr %12, i32 0, i32 3
  store ptr %29, ptr %30, align 8
  %31 = load ptr, ptr %9, align 8
  %32 = load i64, ptr %31, align 8
  %33 = trunc i64 %32 to i32
  %34 = getelementptr inbounds %struct.z_stream_s, ptr %12, i32 0, i32 4
  store i32 %33, ptr %34, align 8
  %35 = getelementptr inbounds %struct.z_stream_s, ptr %12, i32 0, i32 8
  store ptr @ft_gzip_alloc, ptr %35, align 8
  %36 = getelementptr inbounds %struct.z_stream_s, ptr %12, i32 0, i32 9
  store ptr @ft_gzip_free, ptr %36, align 8
  %37 = load ptr, ptr %7, align 8
  %38 = getelementptr inbounds %struct.z_stream_s, ptr %12, i32 0, i32 10
  store ptr %37, ptr %38, align 8
  %39 = call i32 @inflateInit2_(ptr noundef %12, i32 noundef 47, ptr noundef @.str, i32 noundef 112)
  store i32 %39, ptr %13, align 4
  %40 = load i32, ptr %13, align 4
  %41 = icmp ne i32 %40, 0
  br i1 %41, label %42, label %43

42:                                               ; preds = %23
  store i32 6, ptr %6, align 4
  br label %75

43:                                               ; preds = %23
  %44 = call i32 @inflate(ptr noundef %12, i32 noundef 4)
  store i32 %44, ptr %13, align 4
  %45 = load i32, ptr %13, align 4
  %46 = icmp ne i32 %45, 1
  br i1 %46, label %47, label %53

47:                                               ; preds = %43
  %48 = call i32 @inflateEnd(ptr noundef %12)
  %49 = load i32, ptr %13, align 4
  %50 = icmp eq i32 %49, 0
  br i1 %50, label %51, label %52

51:                                               ; preds = %47
  store i32 -5, ptr %13, align 4
  br label %52

52:                                               ; preds = %51, %47
  br label %58

53:                                               ; preds = %43
  %54 = getelementptr inbounds %struct.z_stream_s, ptr %12, i32 0, i32 5
  %55 = load i64, ptr %54, align 8
  %56 = load ptr, ptr %9, align 8
  store i64 %55, ptr %56, align 8
  %57 = call i32 @inflateEnd(ptr noundef %12)
  store i32 %57, ptr %13, align 4
  br label %58

58:                                               ; preds = %53, %52
  %59 = load i32, ptr %13, align 4
  %60 = icmp eq i32 %59, -4
  br i1 %60, label %61, label %62

61:                                               ; preds = %58
  store i32 64, ptr %6, align 4
  br label %75

62:                                               ; preds = %58
  %63 = load i32, ptr %13, align 4
  %64 = icmp eq i32 %63, -5
  br i1 %64, label %65, label %66

65:                                               ; preds = %62
  store i32 10, ptr %6, align 4
  br label %75

66:                                               ; preds = %62
  %67 = load i32, ptr %13, align 4
  %68 = icmp eq i32 %67, -3
  br i1 %68, label %69, label %70

69:                                               ; preds = %66
  store i32 8, ptr %6, align 4
  br label %75

70:                                               ; preds = %66
  %71 = load i32, ptr %13, align 4
  %72 = icmp eq i32 %71, 2
  br i1 %72, label %73, label %74

73:                                               ; preds = %70
  store i32 8, ptr %6, align 4
  br label %75

74:                                               ; preds = %70
  store i32 0, ptr %6, align 4
  br label %75

75:                                               ; preds = %74, %73, %69, %65, %61, %42, %22
  %76 = load i32, ptr %6, align 4
  ret i32 %76
}