; Function Attrs: nounwind uwtable
define range(i32 0, 65) i32 @FT_Gzip_Uncompress(ptr noundef %0, ptr noundef %1, ptr noundef %2, ptr noundef %3, i64 noundef %4) local_unnamed_addr #0 {
  %6 = alloca %struct.z_stream_s, align 8
  %7 = icmp ne ptr %0, null
  %8 = icmp ne ptr %2, null
  %or.cond = and i1 %7, %8
  %9 = icmp ne ptr %1, null
  %or.cond3 = and i1 %9, %or.cond
  br i1 %or.cond3, label %10, label %.thread

10:                                               ; preds = %5
  store ptr %3, ptr %6, align 8
  %11 = trunc i64 %4 to i32
  %12 = getelementptr inbounds i8, ptr %6, i64 8
  store i32 %11, ptr %12, align 8
  %13 = getelementptr inbounds i8, ptr %6, i64 24
  store ptr %1, ptr %13, align 8
  %14 = load i64, ptr %2, align 8
  %15 = trunc i64 %14 to i32
  %16 = getelementptr inbounds i8, ptr %6, i64 32
  store i32 %15, ptr %16, align 8
  %17 = getelementptr inbounds i8, ptr %6, i64 64
  store ptr @ft_gzip_alloc, ptr %17, align 8
  %18 = getelementptr inbounds i8, ptr %6, i64 72
  store ptr @ft_gzip_free, ptr %18, align 8
  %19 = getelementptr inbounds i8, ptr %6, i64 80
  store ptr %0, ptr %19, align 8
  %20 = call i32 @inflateInit2_(ptr noundef nonnull %6, i32 noundef 47, ptr noundef nonnull @.str, i32 noundef 112) #6
  %.not = icmp eq i32 %20, 0
  br i1 %.not, label %21, label %.thread

21:                                               ; preds = %10
  %22 = call i32 @inflate(ptr noundef nonnull %6, i32 noundef 4) #6
  %.not24 = icmp eq i32 %22, 1
  br i1 %.not24, label %26, label %23

23:                                               ; preds = %21
  %24 = call i32 @inflateEnd(ptr noundef nonnull %6) #6
  %25 = icmp eq i32 %22, 0
  br i1 %25, label %.thread, label %30

26:                                               ; preds = %21
  %27 = getelementptr inbounds i8, ptr %6, i64 40
  %28 = load i64, ptr %27, align 8
  store i64 %28, ptr %2, align 8
  %29 = call i32 @inflateEnd(ptr noundef nonnull %6) #6
  br label %30

30:                                               ; preds = %23, %26
  %.0 = phi i32 [ %22, %23 ], [ %29, %26 ]
  %switch.tableidx = add i32 %.0, 5
  %31 = icmp ult i32 %switch.tableidx, 8
  br i1 %31, label %switch.lookup, label %.thread

switch.lookup:                                    ; preds = %30
  %32 = zext nneg i32 %switch.tableidx to i64
  %switch.gep = getelementptr inbounds [8 x i32], ptr @switch.table.FT_Gzip_Uncompress, i64 0, i64 %32
  %switch.load = load i32, ptr %switch.gep, align 4
  br label %.thread

.thread:                                          ; preds = %30, %23, %switch.lookup, %10, %5
  %.019 = phi i32 [ 6, %5 ], [ 6, %10 ], [ %switch.load, %switch.lookup ], [ 10, %23 ], [ 0, %30 ]
  ret i32 %.019
}